target datalayout = "e-m:e-p270:32:32-p271:32:32-p272:64:64-i64:64-i128:128-f80:128-n8:16:32:64-S128"
target triple = "x86_64-pc-linux-gnu"

; Function Attrs: nounwind uwtable
define hidden i32 @hwloc_fallback_nbprocessors(i32 noundef %0) #0 {
  %2 = alloca i32, align 4
  %3 = alloca i32, align 4
  %4 = alloca i32, align 4
  %5 = alloca i32, align 4
  store i32 %0, ptr %3, align 4, !tbaa !33
  call void @llvm.lifetime.start.p0(i64 4, ptr %4) #14
  %6 = load i32, ptr %3, align 4, !tbaa !33
  %7 = and i32 %6, 1
  %8 = icmp ne i32 %7, 0
  br i1 %8, label %9, label %17

9:                                                ; preds = %1
  %10 = call i64 @sysconf(i32 noundef 83) #14
  %11 = trunc i64 %10 to i32
  store i32 %11, ptr %4, align 4, !tbaa !33
  %12 = load i32, ptr %4, align 4, !tbaa !33
  %13 = icmp ne i32 %12, -1
  br i1 %13, label %14, label %16

14:                                               ; preds = %9
  %15 = load i32, ptr %4, align 4, !tbaa !33
  store i32 %15, ptr %2, align 4
  store i32 1, ptr %5, align 4
  br label %21

16:                                               ; preds = %9
  br label %17

17:                                               ; preds = %16, %1
  %18 = call i64 @sysconf(i32 noundef 84) #14
  %19 = trunc i64 %18 to i32
  store i32 %19, ptr %4, align 4, !tbaa !33
  %20 = load i32, ptr %4, align 4, !tbaa !33
  store i32 %20, ptr %2, align 4
  store i32 1, ptr %5, align 4
  br label %21

21:                                               ; preds = %17, %14
  call void @llvm.lifetime.end.p0(i64 4, ptr %4) #14
  %22 = load i32, ptr %2, align 4
  ret i32 %22
}