; Function Attrs: nounwind uwtable
define hidden i32 @hwloc_fallback_nbprocessors(i32 noundef %0) local_unnamed_addr #5 {
  %2 = and i32 %0, 1
  %.not = icmp eq i32 %2, 0
  br i1 %.not, label %6, label %3

3:                                                ; preds = %1
  %4 = tail call i64 @sysconf(i32 noundef 83) #34
  %5 = trunc i64 %4 to i32
  %.not6 = icmp eq i32 %5, -1
  br i1 %.not6, label %6, label %9

6:                                                ; preds = %3, %1
  %7 = tail call i64 @sysconf(i32 noundef 84) #34
  %8 = trunc i64 %7 to i32
  br label %9

9:                                                ; preds = %3, %6
  %.0 = phi i32 [ %8, %6 ], [ %5, %3 ]
  ret i32 %.0
}